target datalayout = "e-m:e-p270:32:32-p271:32:32-p272:64:64-i64:64-i128:128-f80:128-n8:16:32:64-S128"
target triple = "x86_64-pc-linux-gnu"

%class.BigInteger = type { i32, %class.BigUnsigned }
%class.BigUnsigned = type { %class.NumberlikeArray }
%class.NumberlikeArray = type { i32, i32, ptr }

@.str = private unnamed_addr constant [101 x i8] c"BigInteger::BigInteger(const Blk *, Index, Sign): Cannot use a sign of zero with a nonzero magnitude\00", align 1
@_ZTIPKc = external constant ptr
@.str.1 = private unnamed_addr constant [63 x i8] c"BigInteger::BigInteger(const Blk *, Index, Sign): Invalid sign\00", align 1

; Function Attrs: mustprogress nounwind uwtable
define linkonce_odr noundef zeroext i1 @_ZNK15NumberlikeArrayImE7isEmptyEv(ptr noundef nonnull align 8 dereferenceable(16) %0) #1 comdat align 2 {
  %2 = alloca ptr, align 8
  store ptr %0, ptr %2, align 8, !tbaa !25
  %3 = load ptr, ptr %2, align 8
  %4 = getelementptr inbounds nuw %class.NumberlikeArray, ptr %3, i32 0, i32 1
  %5 = load i32, ptr %4, align 4, !tbaa !32
  %6 = icmp eq i32 %5, 0
  ret i1 %6
}

; Function Attrs: mustprogress nounwind uwtable
define linkonce_odr void @_ZN11BigUnsigned15zapLeadingZerosEv(ptr noundef nonnull align 8 dereferenceable(16) %0) #1 comdat align 2 {
  %2 = alloca ptr, align 8
  store ptr %0, ptr %2, align 8, !tbaa !18
  %3 = load ptr, ptr %2, align 8
  br label %4

4:                                                ; preds = %20, %1
  %5 = getelementptr inbounds nuw %class.NumberlikeArray, ptr %3, i32 0, i32 1
  %6 = load i32, ptr %5, align 4, !tbaa !32
  %7 = icmp ugt i32 %6, 0
  br i1 %7, label %8, label %18

8:                                                ; preds = %4
  %9 = getelementptr inbounds nuw %class.NumberlikeArray, ptr %3, i32 0, i32 2
  %10 = load ptr, ptr %9, align 8, !tbaa !27
  %11 = getelementptr inbounds nuw %class.NumberlikeArray, ptr %3, i32 0, i32 1
  %12 = load i32, ptr %11, align 4, !tbaa !32
  %13 = sub i32 %12, 1
  %14 = zext i32 %13 to i64
  %15 = getelementptr inbounds nuw i64, ptr %10, i64 %14
  %16 = load i64, ptr %15, align 8, !tbaa !28
  %17 = icmp eq i64 %16, 0
  br label %18

18:                                               ; preds = %8, %4
  %19 = phi i1 [ false, %4 ], [ %17, %8 ]
  br i1 %19, label %20, label %24

20:                                               ; preds = %18
  %21 = getelementptr inbounds nuw %class.NumberlikeArray, ptr %3, i32 0, i32 1
  %22 = load i32, ptr %21, align 4, !tbaa !32
  %23 = add i32 %22, -1
  store i32 %23, ptr %21, align 4, !tbaa !32
  br label %4, !llvm.loop !37

24:                                               ; preds = %18
  ret void
}

; Function Attrs: mustprogress uwtable
define linkonce_odr void @_ZN15NumberlikeArrayImEC2EPKmj(ptr noundef nonnull align 8 dereferenceable(16) %0, ptr noundef %1, i32 noundef %2) unnamed_addr #0 comdat align 2 {
  %4 = alloca ptr, align 8
  %5 = alloca ptr, align 8
  %6 = alloca i32, align 4
  %7 = alloca i32, align 4
  store ptr %0, ptr %4, align 8, !tbaa !25
  store ptr %1, ptr %5, align 8, !tbaa !20
  store i32 %2, ptr %6, align 4, !tbaa !21
  %8 = load ptr, ptr %4, align 8
  %9 = getelementptr inbounds nuw %class.NumberlikeArray, ptr %8, i32 0, i32 0
  %10 = load i32, ptr %6, align 4, !tbaa !21
  store i32 %10, ptr %9, align 8, !tbaa !35
  %11 = getelementptr inbounds nuw %class.NumberlikeArray, ptr %8, i32 0, i32 1
  %12 = load i32, ptr %6, align 4, !tbaa !21
  store i32 %12, ptr %11, align 4, !tbaa !32
  %13 = getelementptr inbounds nuw %class.NumberlikeArray, ptr %8, i32 0, i32 0
  %14 = load i32, ptr %13, align 8, !tbaa !35
  %15 = zext i32 %14 to i64
  %16 = call { i64, i1 } @llvm.umul.with.overflow.i64(i64 %15, i64 8)
  %17 = extractvalue { i64, i1 } %16, 1
  %18 = extractvalue { i64, i1 } %16, 0
  %19 = select i1 %17, i64 -1, i64 %18
  %20 = call noalias noundef nonnull ptr @_Znam(i64 noundef %19) #12
  %21 = getelementptr inbounds nuw %class.NumberlikeArray, ptr %8, i32 0, i32 2
  store ptr %20, ptr %21, align 8, !tbaa !27
  call void @llvm.lifetime.start.p0(i64 4, ptr %7) #9
  store i32 0, ptr %7, align 4, !tbaa !21
  br label %22

22:                                               ; preds = %38, %3
  %23 = load i32, ptr %7, align 4, !tbaa !21
  %24 = getelementptr inbounds nuw %class.NumberlikeArray, ptr %8, i32 0, i32 1
  %25 = load i32, ptr %24, align 4, !tbaa !32
  %26 = icmp ult i32 %23, %25
  br i1 %26, label %27, label %41

27:                                               ; preds = %22
  %28 = load ptr, ptr %5, align 8, !tbaa !20
  %29 = load i32, ptr %7, align 4, !tbaa !21
  %30 = zext i32 %29 to i64
  %31 = getelementptr inbounds nuw i64, ptr %28, i64 %30
  %32 = load i64, ptr %31, align 8, !tbaa !28
  %33 = getelementptr inbounds nuw %class.NumberlikeArray, ptr %8, i32 0, i32 2
  %34 = load ptr, ptr %33, align 8, !tbaa !27
  %35 = load i32, ptr %7, align 4, !tbaa !21
  %36 = zext i32 %35 to i64
  %37 = getelementptr inbounds nuw i64, ptr %34, i64 %36
  store i64 %32, ptr %37, align 8, !tbaa !28
  br label %38

38:                                               ; preds = %27
  %39 = load i32, ptr %7, align 4, !tbaa !21
  %40 = add i32 %39, 1
  store i32 %40, ptr %7, align 4, !tbaa !21
  br label %22, !llvm.loop !36

41:                                               ; preds = %22
  call void @llvm.lifetime.end.p0(i64 4, ptr %7) #9
  ret void
}

; Function Attrs: mustprogress nounwind uwtable
define linkonce_odr void @_ZN15NumberlikeArrayImED2Ev(ptr noundef nonnull align 8 dereferenceable(16) %0) unnamed_addr #1 comdat align 2 {
  %2 = alloca ptr, align 8
  store ptr %0, ptr %2, align 8, !tbaa !25
  %3 = load ptr, ptr %2, align 8
  %4 = getelementptr inbounds nuw %class.NumberlikeArray, ptr %3, i32 0, i32 2
  %5 = load ptr, ptr %4, align 8, !tbaa !27
  %6 = icmp eq ptr %5, null
  br i1 %6, label %8, label %7

7:                                                ; preds = %1
  call void @_ZdaPv(ptr noundef %5) #11
  br label %8

8:                                                ; preds = %7, %1
  ret void
}

; Function Attrs: mustprogress uwtable
define linkonce_odr noundef zeroext i1 @_ZNK11BigUnsigned6isZeroEv(ptr noundef nonnull align 8 dereferenceable(16) %0) #0 comdat align 2 {
  %2 = alloca ptr, align 8
  store ptr %0, ptr %2, align 8, !tbaa !18
  %3 = load ptr, ptr %2, align 8
  %4 = call noundef zeroext i1 @_ZNK15NumberlikeArrayImE7isEmptyEv(ptr noundef nonnull align 8 dereferenceable(16) %3)
  ret i1 %4
}

; Function Attrs: mustprogress uwtable
define linkonce_odr void @_ZN11BigUnsignedC2EPKmj(ptr noundef nonnull align 8 dereferenceable(16) %0, ptr noundef %1, i32 noundef %2) unnamed_addr #0 comdat align 2 personality ptr @__gxx_personality_v0 {
  %4 = alloca ptr, align 8
  %5 = alloca ptr, align 8
  %6 = alloca i32, align 4
  %7 = alloca ptr, align 8
  %8 = alloca i32, align 4
  store ptr %0, ptr %4, align 8, !tbaa !18
  store ptr %1, ptr %5, align 8, !tbaa !20
  store i32 %2, ptr %6, align 4, !tbaa !21
  %9 = load ptr, ptr %4, align 8
  %10 = load ptr, ptr %5, align 8, !tbaa !20
  %11 = load i32, ptr %6, align 4, !tbaa !21
  call void @_ZN15NumberlikeArrayImEC2EPKmj(ptr noundef nonnull align 8 dereferenceable(16) %9, ptr noundef %10, i32 noundef %11)
  invoke void @_ZN11BigUnsigned15zapLeadingZerosEv(ptr noundef nonnull align 8 dereferenceable(16) %9)
          to label %12 unwind label %13

12:                                               ; preds = %3
  ret void

13:                                               ; preds = %3
  %14 = landingpad { ptr, i32 }
          cleanup
  %15 = extractvalue { ptr, i32 } %14, 0
  store ptr %15, ptr %7, align 8
  %16 = extractvalue { ptr, i32 } %14, 1
  store i32 %16, ptr %8, align 4
  call void @_ZN15NumberlikeArrayImED2Ev(ptr noundef nonnull align 8 dereferenceable(16) %9) #9
  br label %17

17:                                               ; preds = %13
  %18 = load ptr, ptr %7, align 8
  %19 = load i32, ptr %8, align 4
  %20 = insertvalue { ptr, i32 } poison, ptr %18, 0
  %21 = insertvalue { ptr, i32 } %20, i32 %19, 1
  resume { ptr, i32 } %21
}

; Function Attrs: mustprogress uwtable
define void @_ZN10BigIntegerC2EPKmjNS_4SignE(ptr noundef nonnull align 8 dereferenceable(24) %0, ptr noundef %1, i32 noundef %2, i32 noundef %3) unnamed_addr #0 align 2 personality ptr @__gxx_personality_v0 {
  %5 = alloca ptr, align 8
  %6 = alloca ptr, align 8
  %7 = alloca i32, align 4
  %8 = alloca i32, align 4
  %9 = alloca ptr, align 8
  %10 = alloca i32, align 4
  store ptr %0, ptr %5, align 8, !tbaa !6
  store ptr %1, ptr %6, align 8, !tbaa !20
  store i32 %2, ptr %7, align 4, !tbaa !21
  store i32 %3, ptr %8, align 4, !tbaa !22
  %11 = load ptr, ptr %5, align 8
  %12 = getelementptr inbounds nuw %class.BigInteger, ptr %11, i32 0, i32 1
  %13 = load ptr, ptr %6, align 8, !tbaa !20
  %14 = load i32, ptr %7, align 4, !tbaa !21
  call void @_ZN11BigUnsignedC2EPKmj(ptr noundef nonnull align 8 dereferenceable(16) %12, ptr noundef %13, i32 noundef %14)
  %15 = load i32, ptr %8, align 4, !tbaa !22
  switch i32 %15, label %38 [
    i32 0, label %16
    i32 1, label %28
    i32 -1, label %28
  ]

16:                                               ; preds = %4
  %17 = getelementptr inbounds nuw %class.BigInteger, ptr %11, i32 0, i32 1
  %18 = invoke noundef zeroext i1 @_ZNK11BigUnsigned6isZeroEv(ptr noundef nonnull align 8 dereferenceable(16) %17)
          to label %19 unwind label %22

19:                                               ; preds = %16
  br i1 %18, label %26, label %20

20:                                               ; preds = %19
  %21 = call ptr @__cxa_allocate_exception(i64 8) #9
  store ptr @.str, ptr %21, align 16, !tbaa !23
  invoke void @__cxa_throw(ptr %21, ptr @_ZTIPKc, ptr null) #10
          to label %46 unwind label %22

22:                                               ; preds = %38, %28, %20, %16
  %23 = landingpad { ptr, i32 }
          cleanup
  %24 = extractvalue { ptr, i32 } %23, 0
  store ptr %24, ptr %9, align 8
  %25 = extractvalue { ptr, i32 } %23, 1
  store i32 %25, ptr %10, align 4
  call void @_ZN15NumberlikeArrayImED2Ev(ptr noundef nonnull align 8 dereferenceable(16) %12) #9
  br label %41

26:                                               ; preds = %19
  %27 = getelementptr inbounds nuw %class.BigInteger, ptr %11, i32 0, i32 0
  store i32 0, ptr %27, align 8, !tbaa !11
  br label %40

28:                                               ; preds = %4, %4
  %29 = getelementptr inbounds nuw %class.BigInteger, ptr %11, i32 0, i32 1
  %30 = invoke noundef zeroext i1 @_ZNK11BigUnsigned6isZeroEv(ptr noundef nonnull align 8 dereferenceable(16) %29)
          to label %31 unwind label %22

31:                                               ; preds = %28
  br i1 %30, label %32, label %33

32:                                               ; preds = %31
  br label %35

33:                                               ; preds = %31
  %34 = load i32, ptr %8, align 4, !tbaa !22
  br label %35

35:                                               ; preds = %33, %32
  %36 = phi i32 [ 0, %32 ], [ %34, %33 ]
  %37 = getelementptr inbounds nuw %class.BigInteger, ptr %11, i32 0, i32 0
  store i32 %36, ptr %37, align 8, !tbaa !11
  br label %40

38:                                               ; preds = %4
  %39 = call ptr @__cxa_allocate_exception(i64 8) #9
  store ptr @.str.1, ptr %39, align 16, !tbaa !23
  invoke void @__cxa_throw(ptr %39, ptr @_ZTIPKc, ptr null) #10
          to label %46 unwind label %22

40:                                               ; preds = %35, %26
  ret void

41:                                               ; preds = %22
  %42 = load ptr, ptr %9, align 8
  %43 = load i32, ptr %10, align 4
  %44 = insertvalue { ptr, i32 } poison, ptr %42, 0
  %45 = insertvalue { ptr, i32 } %44, i32 %43, 1
  resume { ptr, i32 } %45

46:                                               ; preds = %38, %20
  unreachable
}