; Function Attrs: mustprogress uwtable
define void @_ZN10BigIntegerC2EPKmjNS_4SignE(ptr noundef nonnull align 8 captures(none) dereferenceable(24) initializes((8, 24)) %0, ptr noundef readonly captures(none) %1, i32 noundef %2, i32 noundef %3) unnamed_addr #0 align 2 personality ptr @__gxx_personality_v0 {
  %5 = getelementptr inbounds nuw i8, ptr %0, i64 8
  store i32 %2, ptr %5, align 8, !tbaa !17
  %6 = getelementptr inbounds nuw i8, ptr %0, i64 12
  store i32 %2, ptr %6, align 4, !tbaa !16
  %7 = zext i32 %2 to i64
  %8 = shl nuw nsw i64 %7, 3
  %9 = tail call noalias noundef nonnull ptr @_Znam(i64 noundef %8) #10
  %10 = getelementptr inbounds nuw i8, ptr %0, i64 16
  store ptr %9, ptr %10, align 8, !tbaa !18
  %.not.i.i = icmp eq i32 %2, 0
  br i1 %.not.i.i, label %_ZN11BigUnsignedC2EPKmj.exit, label %.lr.ph.i.i

.lr.ph.i.i:                                       ; preds = %4
  tail call void @llvm.memcpy.p0.p0.i64(ptr nonnull align 8 %9, ptr align 8 %1, i64 %8, i1 false), !tbaa !19
  br label %11

11:                                               ; preds = %16, %.lr.ph.i.i
  %indvars.iv.i.i = phi i64 [ %7, %.lr.ph.i.i ], [ %indvars.iv.next.i.i, %16 ]
  %indvars.iv.next.i.i = add nsw i64 %indvars.iv.i.i, -1
  %12 = and i64 %indvars.iv.next.i.i, 4294967295
  %13 = getelementptr inbounds nuw i64, ptr %9, i64 %12
  %14 = load i64, ptr %13, align 8, !tbaa !19
  %15 = icmp eq i64 %14, 0
  br i1 %15, label %16, label %_ZN11BigUnsignedC2EPKmj.exit

16:                                               ; preds = %11
  %indvars.i.i = trunc i64 %indvars.iv.next.i.i to i32
  store i32 %indvars.i.i, ptr %6, align 4, !tbaa !16
  %.not.i2.i = icmp eq i32 %indvars.i.i, 0
  br i1 %.not.i2.i, label %_ZN11BigUnsignedC2EPKmj.exit, label %11, !llvm.loop !23

_ZN11BigUnsignedC2EPKmj.exit:                     ; preds = %11, %16, %4
  %17 = phi i1 [ true, %4 ], [ %15, %16 ], [ %15, %11 ]
  switch i32 %3, label %.invoke [
    i32 0, label %18
    i32 1, label %24
    i32 -1, label %24
  ]

18:                                               ; preds = %_ZN11BigUnsignedC2EPKmj.exit
  br i1 %17, label %27, label %.invoke

19:                                               ; preds = %.invoke
  %20 = landingpad { ptr, i32 }
          cleanup
  %21 = load ptr, ptr %10, align 8, !tbaa !18
  %22 = icmp eq ptr %21, null
  br i1 %22, label %_ZN15NumberlikeArrayImED2Ev.exit, label %23

23:                                               ; preds = %19
  tail call void @_ZdaPv(ptr noundef nonnull %21) #9
  br label %_ZN15NumberlikeArrayImED2Ev.exit

_ZN15NumberlikeArrayImED2Ev.exit:                 ; preds = %19, %23
  resume { ptr, i32 } %20

24:                                               ; preds = %_ZN11BigUnsignedC2EPKmj.exit, %_ZN11BigUnsignedC2EPKmj.exit
  %25 = select i1 %17, i32 0, i32 %3
  br label %27

.invoke:                                          ; preds = %_ZN11BigUnsignedC2EPKmj.exit, %18
  %.str.sink = phi ptr [ @.str, %18 ], [ @.str.1, %_ZN11BigUnsignedC2EPKmj.exit ]
  %26 = tail call ptr @__cxa_allocate_exception(i64 8) #11
  store ptr %.str.sink, ptr %26, align 16, !tbaa !24
  invoke void @__cxa_throw(ptr nonnull %26, ptr nonnull @_ZTIPKc, ptr null) #12
          to label %.cont unwind label %19

.cont:                                            ; preds = %.invoke
  unreachable

27:                                               ; preds = %18, %24
  %storemerge = phi i32 [ %25, %24 ], [ 0, %18 ]
  store i32 %storemerge, ptr %0, align 8, !tbaa !6
  ret void
}